(lp0
ccopy_reg
_reconstructor
p1
(c__main__
GM
p2
c__builtin__
object
p3
Ntp4
Rp5
(dp6
S'sawayc'
p7
I00
sS'pendingldr'
p8
I0
sS'group'
p9
(lp10
I1
asS'uuid'
p11
I0
sS'p'
p12
F0.75
sS'pendingid'
p13
I0
sS'groupid'
p14
I11
sS'coordinators'
p15
(lp16
sS'groupchange'
p17
I00
sS'expected'
p18
(lp19
sS'leader'
p20
I0
sS'pending'
p21
(lp22
sS'connmgr'
p23
g1
(c__main__
ConnectionManager
p24
g3
Ntp25
Rp26
(dp27
S'connections'
p28
(dp29
(I0
I1
tp30
g1
(c__main__
Connection
p31
g3
Ntp32
Rp33
(dp34
S'channelb'
p35
(lp36
sS'channela'
p37
(lp38
sS'uuidb'
p39
I1
sS'uuida'
p40
I0
sbs(I1
I2
tp41
g1
(g31
g3
Ntp42
Rp43
(dp44
g35
(lp45
sg37
(lp46
sg39
I2
sg40
I1
sbs(I1
I3
tp47
g1
(g31
g3
Ntp48
Rp49
(dp50
g35
(lp51
sg37
(lp52
sg39
I3
sg40
I1
sbs(I1
I4
tp53
g1
(g31
g3
Ntp54
Rp55
(dp56
g35
(lp57
sg37
(lp58
sg39
I4
sg40
I1
sbs(I2
I4
tp59
g1
(g31
g3
Ntp60
Rp61
(dp62
g35
(lp63
sg37
(lp64
sg39
I4
sg40
I2
sbs(I2
I3
tp65
g1
(g31
g3
Ntp66
Rp67
(dp68
g35
(lp69
sg37
(lp70
sg39
I3
sg40
I2
sbs(I0
I4
tp71
g1
(g31
g3
Ntp72
Rp73
(dp74
g35
(lp75
sg37
(lp76
sg39
I4
sg40
I0
sbs(I0
I3
tp77
g1
(g31
g3
Ntp78
Rp79
(dp80
g35
(lp81
sg37
(lp82
sg39
I3
sg40
I0
sbs(I3
I4
tp83
g1
(g31
g3
Ntp84
Rp85
(dp86
g35
(lp87
sg37
(lp88
sg39
I4
sg40
I3
sbs(I0
I2
tp89
g1
(g31
g3
Ntp90
Rp91
(dp92
g35
(lp93
sg37
(lp94
sg39
I2
sg40
I0
sbssS'peers'
p95
c__builtin__
set
p96
((lp97
I0
aI1
aI2
aI3
aI4
atp98
Rp99
sbsbag1
(g2
g3
Ntp100
Rp101
(dp102
g7
I00
sg8
I1
sg9
(lp103
I1
aI2
asg11
I1
sg12
F0.75
sg13
I0
sg14
I11
sg15
(lp104
sg17
I00
sg18
(lp105
sg20
I0
sg21
(lp106
sg23
g26
sbag1
(g2
g3
Ntp107
Rp108
(dp109
g7
I00
sg8
I2
sg9
(lp110
sg11
I2
sg12
F0.75
sg13
I0
sg14
I8
sg15
(lp111
sg17
I00
sg18
(lp112
sg20
I2
sg21
(lp113
sg23
g26
sbag1
(g2
g3
Ntp114
Rp115
(dp116
g7
I00
sg8
I3
sg9
(lp117
sg11
I3
sg12
F0.75
sg13
I0
sg14
I14
sg15
(lp118
sg17
I00
sg18
(lp119
sg20
I3
sg21
(lp120
sg23
g26
sbag1
(g2
g3
Ntp121
Rp122
(dp123
g7
I00
sg8
I4
sg9
(lp124
sg11
I4
sg12
F0.75
sg13
I0
sg14
I5
sg15
(lp125
sg17
I00
sg18
(lp126
sg20
I4
sg21
(lp127
sg23
g26
sba.